; ModuleID = '52/2198.c'
source_filename = "52/2198.c"
target datalayout = "e-m:e-p270:32:32-p271:32:32-p272:64:64-i64:64-f80:128-n8:16:32:64-S128"
target triple = "x86_64-pc-linux-gnu"

@.str = private unnamed_addr constant [6 x i8] c"%d %d\00", align 1
@.str.1 = private unnamed_addr constant [3 x i8] c"%d\00", align 1
@.str.2 = private unnamed_addr constant [4 x i8] c"%d \00", align 1
@.str.3 = private unnamed_addr constant [4 x i8] c"%d\0A\00", align 1

; Function Attrs: noinline nounwind uwtable
define dso_local void @main() #0 {
  %1 = alloca i32, align 4
  %2 = alloca i32, align 4
  %3 = alloca i32, align 4
  %4 = alloca i32, align 4
  %5 = alloca [150 x i32], align 16
  %6 = alloca [150 x i32], align 16
  %7 = bitcast [150 x i32]* %5 to i8*
  call void @llvm.memset.p0i8.i64(i8* align 16 %7, i8 0, i64 600, i1 false)
  %8 = bitcast [150 x i32]* %6 to i8*
  call void @llvm.memset.p0i8.i64(i8* align 16 %8, i8 0, i64 600, i1 false)
  %9 = call i32 (i8*, ...) @__isoc99_scanf(i8* getelementptr inbounds ([6 x i8], [6 x i8]* @.str, i64 0, i64 0), i32* %1, i32* %2)
  store i32 0, i32* %3, align 4
  br label %10

10:                                               ; preds = %19, %0
  %11 = load i32, i32* %3, align 4
  %12 = load i32, i32* %1, align 4
  %13 = icmp slt i32 %11, %12
  br i1 %13, label %14, label %22

14:                                               ; preds = %10
  %15 = load i32, i32* %3, align 4
  %16 = sext i32 %15 to i64
  %17 = getelementptr inbounds [150 x i32], [150 x i32]* %5, i64 0, i64 %16
  %18 = call i32 (i8*, ...) @__isoc99_scanf(i8* getelementptr inbounds ([3 x i8], [3 x i8]* @.str.1, i64 0, i64 0), i32* %17)
  br label %19

19:                                               ; preds = %14
  %20 = load i32, i32* %3, align 4
  %21 = add nsw i32 %20, 1
  store i32 %21, i32* %3, align 4
  br label %10

22:                                               ; preds = %10
  %23 = load i32, i32* %1, align 4
  %24 = load i32, i32* %2, align 4
  %25 = sub nsw i32 %23, %24
  store i32 %25, i32* %3, align 4
  store i32 0, i32* %4, align 4
  br label %26

26:                                               ; preds = %38, %22
  %27 = load i32, i32* %3, align 4
  %28 = load i32, i32* %1, align 4
  %29 = icmp slt i32 %27, %28
  br i1 %29, label %30, label %43

30:                                               ; preds = %26
  %31 = load i32, i32* %3, align 4
  %32 = sext i32 %31 to i64
  %33 = getelementptr inbounds [150 x i32], [150 x i32]* %5, i64 0, i64 %32
  %34 = load i32, i32* %33, align 4
  %35 = load i32, i32* %4, align 4
  %36 = sext i32 %35 to i64
  %37 = getelementptr inbounds [150 x i32], [150 x i32]* %6, i64 0, i64 %36
  store i32 %34, i32* %37, align 4
  br label %38

38:                                               ; preds = %30
  %39 = load i32, i32* %3, align 4
  %40 = add nsw i32 %39, 1
  store i32 %40, i32* %3, align 4
  %41 = load i32, i32* %4, align 4
  %42 = add nsw i32 %41, 1
  store i32 %42, i32* %4, align 4
  br label %26

43:                                               ; preds = %26
  %44 = load i32, i32* %1, align 4
  %45 = load i32, i32* %2, align 4
  %46 = sub nsw i32 %44, %45
  %47 = sub nsw i32 %46, 1
  store i32 %47, i32* %3, align 4
  br label %48

48:                                               ; preds = %61, %43
  %49 = load i32, i32* %3, align 4
  %50 = icmp sge i32 %49, 0
  br i1 %50, label %51, label %64

51:                                               ; preds = %48
  %52 = load i32, i32* %3, align 4
  %53 = sext i32 %52 to i64
  %54 = getelementptr inbounds [150 x i32], [150 x i32]* %5, i64 0, i64 %53
  %55 = load i32, i32* %54, align 4
  %56 = load i32, i32* %3, align 4
  %57 = load i32, i32* %2, align 4
  %58 = add nsw i32 %56, %57
  %59 = sext i32 %58 to i64
  %60 = getelementptr inbounds [150 x i32], [150 x i32]* %5, i64 0, i64 %59
  store i32 %55, i32* %60, align 4
  br label %61

61:                                               ; preds = %51
  %62 = load i32, i32* %3, align 4
  %63 = add nsw i32 %62, -1
  store i32 %63, i32* %3, align 4
  br label %48

64:                                               ; preds = %48
  store i32 0, i32* %3, align 4
  br label %65

65:                                               ; preds = %77, %64
  %66 = load i32, i32* %3, align 4
  %67 = load i32, i32* %2, align 4
  %68 = icmp slt i32 %66, %67
  br i1 %68, label %69, label %80

69:                                               ; preds = %65
  %70 = load i32, i32* %3, align 4
  %71 = sext i32 %70 to i64
  %72 = getelementptr inbounds [150 x i32], [150 x i32]* %6, i64 0, i64 %71
  %73 = load i32, i32* %72, align 4
  %74 = load i32, i32* %3, align 4
  %75 = sext i32 %74 to i64
  %76 = getelementptr inbounds [150 x i32], [150 x i32]* %5, i64 0, i64 %75
  store i32 %73, i32* %76, align 4
  br label %77

77:                                               ; preds = %69
  %78 = load i32, i32* %3, align 4
  %79 = add nsw i32 %78, 1
  store i32 %79, i32* %3, align 4
  br label %65

80:                                               ; preds = %65
  store i32 0, i32* %3, align 4
  br label %81

81:                                               ; preds = %92, %80
  %82 = load i32, i32* %3, align 4
  %83 = load i32, i32* %1, align 4
  %84 = sub nsw i32 %83, 1
  %85 = icmp slt i32 %82, %84
  br i1 %85, label %86, label %95

86:                                               ; preds = %81
  %87 = load i32, i32* %3, align 4
  %88 = sext i32 %87 to i64
  %89 = getelementptr inbounds [150 x i32], [150 x i32]* %5, i64 0, i64 %88
  %90 = load i32, i32* %89, align 4
  %91 = call i32 (i8*, ...) @printf(i8* getelementptr inbounds ([4 x i8], [4 x i8]* @.str.2, i64 0, i64 0), i32 %90)
  br label %92

92:                                               ; preds = %86
  %93 = load i32, i32* %3, align 4
  %94 = add nsw i32 %93, 1
  store i32 %94, i32* %3, align 4
  br label %81

95:                                               ; preds = %81
  %96 = load i32, i32* %1, align 4
  %97 = sub nsw i32 %96, 1
  %98 = sext i32 %97 to i64
  %99 = getelementptr inbounds [150 x i32], [150 x i32]* %5, i64 0, i64 %98
  %100 = load i32, i32* %99, align 4
  %101 = call i32 (i8*, ...) @printf(i8* getelementptr inbounds ([4 x i8], [4 x i8]* @.str.3, i64 0, i64 0), i32 %100)
  ret void
}

; Function Attrs: argmemonly nounwind willreturn
declare void @llvm.memset.p0i8.i64(i8* nocapture writeonly, i8, i64, i1 immarg) #1

declare dso_local i32 @__isoc99_scanf(i8*, ...) #2

declare dso_local i32 @printf(i8*, ...) #2


!llvm.module.flags = !{!0}
!llvm.ident = !{!1}

!0 = !{i32 1, !"wchar_size", i32 4}
!1 = !{!"clang version 10.0.0-4ubuntu1 "}
